; Function Attrs: nofree norecurse nosync nounwind memory(argmem: readwrite) uwtable
define internal void @HorizontalUnfilter_SSE2(ptr noundef readonly captures(address_is_null) %0, ptr noundef readonly captures(none) %1, ptr noundef captures(none) initializes((0, 1)) %2, i32 noundef %3) #1 {
  %5 = load i8, ptr %1, align 1, !tbaa !7
  %6 = icmp eq ptr %0, null
  br i1 %6, label %9, label %7

7:                                                ; preds = %4
  %8 = load i8, ptr %0, align 1, !tbaa !7
  br label %9

9:                                                ; preds = %4, %7
  %10 = phi i8 [ %8, %7 ], [ 0, %4 ]
  %11 = add i8 %10, %5
  store i8 %11, ptr %2, align 1, !tbaa !7
  %12 = icmp slt i32 %3, 2
  br i1 %12, label %.loopexit, label %13

13:                                               ; preds = %9
  %.not38 = icmp samesign ult i32 %3, 9
  br i1 %.not38, label %.preheader, label %.lr.ph.preheader

.lr.ph.preheader:                                 ; preds = %13
  %14 = zext i8 %11 to i32
  %15 = insertelement <4 x i32> <i32 poison, i32 0, i32 0, i32 0>, i32 %14, i64 0
  %16 = bitcast <4 x i32> %15 to <2 x i64>
  %17 = zext nneg i32 %3 to i64
  br label %.lr.ph

.preheader.loopexit:                              ; preds = %.lr.ph
  %18 = trunc nuw nsw i64 %indvars.iv to i32
  br label %.preheader

.preheader:                                       ; preds = %.preheader.loopexit, %13
  %.0.lcssa = phi i32 [ 1, %13 ], [ %18, %.preheader.loopexit ]
  %19 = icmp slt i32 %.0.lcssa, %3
  br i1 %19, label %.lr.ph42.preheader, label %.loopexit

.lr.ph42.preheader:                               ; preds = %.preheader
  %20 = zext i32 %.0.lcssa to i64
  %wide.trip.count = zext nneg i32 %3 to i64
  %21 = getelementptr i8, ptr %2, i64 %20
  %scevgep = getelementptr i8, ptr %21, i64 -1
  %load_initial = load i8, ptr %scevgep, align 1
  br label %.lr.ph42

.lr.ph:                                           ; preds = %.lr.ph.preheader, %.lr.ph
  %indvars.iv43 = phi i64 [ 1, %.lr.ph.preheader ], [ %indvars.iv.next44, %.lr.ph ]
  %indvars.iv = phi i64 [ 9, %.lr.ph.preheader ], [ %indvars.iv.next, %.lr.ph ]
  %.03439 = phi <2 x i64> [ %16, %.lr.ph.preheader ], [ %37, %.lr.ph ]
  %22 = getelementptr inbounds nuw i8, ptr %1, i64 %indvars.iv43
  %23 = load i64, ptr %22, align 1, !tbaa !7
  %24 = insertelement <2 x i64> <i64 poison, i64 0>, i64 %23, i64 0
  %25 = bitcast <2 x i64> %24 to <16 x i8>
  %26 = bitcast <2 x i64> %.03439 to <16 x i8>
  %27 = add <16 x i8> %25, %26
  %28 = shufflevector <16 x i8> <i8 poison, i8 poison, i8 poison, i8 poison, i8 poison, i8 poison, i8 poison, i8 poison, i8 poison, i8 poison, i8 poison, i8 poison, i8 poison, i8 poison, i8 poison, i8 0>, <16 x i8> %27, <16 x i32> <i32 15, i32 16, i32 17, i32 18, i32 19, i32 20, i32 21, i32 22, i32 23, i32 24, i32 25, i32 26, i32 27, i32 28, i32 29, i32 30>
  %29 = add <16 x i8> %28, %27
  %30 = shufflevector <16 x i8> <i8 poison, i8 poison, i8 poison, i8 poison, i8 poison, i8 poison, i8 poison, i8 poison, i8 poison, i8 poison, i8 poison, i8 poison, i8 poison, i8 poison, i8 0, i8 0>, <16 x i8> %29, <16 x i32> <i32 14, i32 15, i32 16, i32 17, i32 18, i32 19, i32 20, i32 21, i32 22, i32 23, i32 24, i32 25, i32 26, i32 27, i32 28, i32 29>
  %31 = add <16 x i8> %30, %29
  %32 = shufflevector <16 x i8> <i8 poison, i8 poison, i8 poison, i8 poison, i8 poison, i8 poison, i8 poison, i8 poison, i8 poison, i8 poison, i8 poison, i8 poison, i8 0, i8 0, i8 0, i8 0>, <16 x i8> %31, <16 x i32> <i32 12, i32 13, i32 14, i32 15, i32 16, i32 17, i32 18, i32 19, i32 20, i32 21, i32 22, i32 23, i32 24, i32 25, i32 26, i32 27>
  %33 = add <16 x i8> %32, %31
  %34 = bitcast <16 x i8> %33 to <2 x i64>
  %35 = getelementptr inbounds nuw i8, ptr %2, i64 %indvars.iv43
  %36 = extractelement <2 x i64> %34, i64 0
  store i64 %36, ptr %35, align 1, !tbaa !7
  %37 = lshr <2 x i64> %34, splat (i64 56)
  %indvars.iv.next = add nuw nsw i64 %indvars.iv, 8
  %.not = icmp samesign ugt i64 %indvars.iv.next, %17
  %indvars.iv.next44 = add nuw nsw i64 %indvars.iv43, 8
  br i1 %.not, label %.preheader.loopexit, label %.lr.ph, !llvm.loop !8

.lr.ph42:                                         ; preds = %.lr.ph42.preheader, %.lr.ph42
  %store_forwarded = phi i8 [ %load_initial, %.lr.ph42.preheader ], [ %41, %.lr.ph42 ]
  %indvars.iv48 = phi i64 [ %20, %.lr.ph42.preheader ], [ %indvars.iv.next49, %.lr.ph42 ]
  %38 = getelementptr inbounds nuw i8, ptr %1, i64 %indvars.iv48
  %39 = load i8, ptr %38, align 1, !tbaa !7
  %40 = getelementptr i8, ptr %2, i64 %indvars.iv48
  %41 = add i8 %store_forwarded, %39
  store i8 %41, ptr %40, align 1, !tbaa !7
  %indvars.iv.next49 = add nuw nsw i64 %indvars.iv48, 1
  %exitcond.not = icmp eq i64 %indvars.iv.next49, %wide.trip.count
  br i1 %exitcond.not, label %.loopexit, label %.lr.ph42, !llvm.loop !10

.loopexit:                                        ; preds = %.lr.ph42, %.preheader, %9
  ret void
}